; Function Attrs: mustprogress nounwind uwtable
define dso_local void @_ZN4llvm9symbolize12MarkupFilter14highlightValueEv(ptr noundef nonnull readonly align 8 captures(none) dereferenceable(464) %0) local_unnamed_addr #0 align 2 {
  %2 = getelementptr inbounds nuw i8, ptr %0, i64 16
  %3 = load i8, ptr %2, align 8
  %4 = trunc i8 %3 to i1
  br i1 %4, label %5, label %14

5:                                                ; preds = %1
  %6 = load ptr, ptr %0, align 8
  %7 = getelementptr inbounds nuw i8, ptr %0, i64 384
  %8 = load i8, ptr %7, align 8
  %9 = trunc i8 %8 to i1
  %10 = load ptr, ptr %6, align 8
  %11 = getelementptr inbounds nuw i8, ptr %10, i64 24
  %12 = load ptr, ptr %11, align 8
  %13 = tail call noundef nonnull align 8 dereferenceable(48) ptr %12(ptr noundef nonnull align 8 dereferenceable(48) %6, i32 noundef 2, i1 noundef zeroext %9, i1 noundef zeroext false) #21
  br label %14

14:                                               ; preds = %1, %5
  ret void
}